target datalayout = "e-m:e-p270:32:32-p271:32:32-p272:64:64-i64:64-i128:128-f80:128-n8:16:32:64-S128"
target triple = "x86_64-pc-linux-gnu"

%"class.llvm::SmallVectorBase" = type { ptr, i32, i32 }
%"class.llvm::SUnit" = type <{ %union.anon, ptr, ptr, ptr, ptr, %"class.llvm::SmallVector.0", %"class.llvm::SmallVector.0", i32, i32, i32, i32, i32, i32, i32, i32, i32, i32, i32, i32, i16, i16, i16, i8, i8 }>
%union.anon = type { ptr }
%"class.llvm::SmallVector.0" = type { %"class.llvm::SmallVectorImpl.1", %"struct.llvm::SmallVectorStorage.4" }
%"class.llvm::SmallVectorImpl.1" = type { %"class.llvm::SmallVectorTemplateBase.2" }
%"class.llvm::SmallVectorTemplateBase.2" = type { %"class.llvm::SmallVectorTemplateCommon.3" }
%"class.llvm::SmallVectorTemplateCommon.3" = type { %"class.llvm::SmallVectorBase" }
%"struct.llvm::SmallVectorStorage.4" = type { [64 x i8] }
%"class.__gnu_cxx::__normal_iterator" = type { ptr }
%"class.llvm::ScheduleDAG" = type { ptr, ptr, ptr, ptr, ptr, ptr, %"class.std::vector", %"class.llvm::SUnit", %"class.llvm::SUnit" }
%"class.std::vector" = type { %"struct.std::_Vector_base" }
%"struct.std::_Vector_base" = type { %"struct.std::_Vector_base<llvm::SUnit, std::allocator<llvm::SUnit>>::_Vector_impl" }
%"struct.std::_Vector_base<llvm::SUnit, std::allocator<llvm::SUnit>>::_Vector_impl" = type { %"struct.std::_Vector_base<llvm::SUnit, std::allocator<llvm::SUnit>>::_Vector_impl_data" }
%"struct.std::_Vector_base<llvm::SUnit, std::allocator<llvm::SUnit>>::_Vector_impl_data" = type { ptr, ptr, ptr }
%"class.(anonymous namespace)::MacroFusion" = type <{ %"class.llvm::ScheduleDAGMutation", %"class.std::vector.58", i8, [7 x i8] }>
%"class.llvm::ScheduleDAGMutation" = type { ptr }
%"class.std::vector.58" = type { %"struct.std::_Vector_base.59" }
%"struct.std::_Vector_base.59" = type { %"struct.std::_Vector_base<bool (*)(const llvm::TargetInstrInfo &, const llvm::TargetSubtargetInfo &, const llvm::MachineInstr *, const llvm::MachineInstr &), std::allocator<bool (*)(const llvm::TargetInstrInfo &, const llvm::TargetSubtargetInfo &, const llvm::MachineInstr *, const llvm::MachineInstr &)>>::_Vector_impl" }
%"struct.std::_Vector_base<bool (*)(const llvm::TargetInstrInfo &, const llvm::TargetSubtargetInfo &, const llvm::MachineInstr *, const llvm::MachineInstr &), std::allocator<bool (*)(const llvm::TargetInstrInfo &, const llvm::TargetSubtargetInfo &, const llvm::MachineInstr *, const llvm::MachineInstr &)>>::_Vector_impl" = type { %"struct.std::_Vector_base<bool (*)(const llvm::TargetInstrInfo &, const llvm::TargetSubtargetInfo &, const llvm::MachineInstr *, const llvm::MachineInstr &), std::allocator<bool (*)(const llvm::TargetInstrInfo &, const llvm::TargetSubtargetInfo &, const llvm::MachineInstr *, const llvm::MachineInstr &)>>::_Vector_impl_data" }
%"struct.std::_Vector_base<bool (*)(const llvm::TargetInstrInfo &, const llvm::TargetSubtargetInfo &, const llvm::MachineInstr *, const llvm::MachineInstr &), std::allocator<bool (*)(const llvm::TargetInstrInfo &, const llvm::TargetSubtargetInfo &, const llvm::MachineInstr *, const llvm::MachineInstr &)>>::_Vector_impl_data" = type { ptr, ptr, ptr }

; Function Attrs: mustprogress nounwind uwtable
define linkonce_odr hidden noundef nonnull align 8 dereferenceable(8) ptr @_ZNK9__gnu_cxx17__normal_iteratorIPN4llvm5SUnitESt6vectorIS2_SaIS2_EEE4baseEv(ptr noundef nonnull align 8 dereferenceable(8) %0) #1 comdat align 2 {
  %2 = alloca ptr, align 8
  store ptr %0, ptr %2, align 8
  %3 = load ptr, ptr %2, align 8
  %4 = getelementptr inbounds nuw %"class.__gnu_cxx::__normal_iterator", ptr %3, i32 0, i32 0
  ret ptr %4
}

; Function Attrs: mustprogress nounwind uwtable
define linkonce_odr hidden void @_ZN9__gnu_cxx17__normal_iteratorIPN4llvm5SUnitESt6vectorIS2_SaIS2_EEEC2ERKS3_(ptr noundef nonnull align 8 dereferenceable(8) %0, ptr noundef nonnull align 8 dereferenceable(8) %1) unnamed_addr #1 comdat align 2 {
  %3 = alloca ptr, align 8
  %4 = alloca ptr, align 8
  store ptr %0, ptr %3, align 8
  store ptr %1, ptr %4, align 8
  %5 = load ptr, ptr %3, align 8
  %6 = getelementptr inbounds nuw %"class.__gnu_cxx::__normal_iterator", ptr %5, i32 0, i32 0
  %7 = load ptr, ptr %4, align 8
  %8 = load ptr, ptr %7, align 8
  store ptr %8, ptr %6, align 8
  ret void
}

; Function Attrs: mustprogress nounwind uwtable
define linkonce_odr hidden noundef ptr @_ZNK4llvm5SUnit8getInstrEv(ptr noundef nonnull align 8 dereferenceable(255) %0) #1 comdat align 2 {
  %2 = alloca ptr, align 8
  store ptr %0, ptr %2, align 8
  %3 = load ptr, ptr %2, align 8
  %4 = getelementptr inbounds nuw %"class.llvm::SUnit", ptr %3, i32 0, i32 0
  %5 = load ptr, ptr %4, align 8
  ret ptr %5
}

; Function Attrs: mustprogress nounwind uwtable
define linkonce_odr hidden noundef nonnull align 8 dereferenceable(8) ptr @_ZN9__gnu_cxx17__normal_iteratorIPN4llvm5SUnitESt6vectorIS2_SaIS2_EEEppEv(ptr noundef nonnull align 8 dereferenceable(8) %0) #1 comdat align 2 {
  %2 = alloca ptr, align 8
  store ptr %0, ptr %2, align 8
  %3 = load ptr, ptr %2, align 8
  %4 = getelementptr inbounds nuw %"class.__gnu_cxx::__normal_iterator", ptr %3, i32 0, i32 0
  %5 = load ptr, ptr %4, align 8
  %6 = getelementptr inbounds %"class.llvm::SUnit", ptr %5, i32 1
  store ptr %6, ptr %4, align 8
  ret ptr %3
}

; Function Attrs: mustprogress nounwind uwtable
define linkonce_odr hidden noundef nonnull align 8 dereferenceable(255) ptr @_ZNK9__gnu_cxx17__normal_iteratorIPN4llvm5SUnitESt6vectorIS2_SaIS2_EEEdeEv(ptr noundef nonnull align 8 dereferenceable(8) %0) #1 comdat align 2 {
  %2 = alloca ptr, align 8
  store ptr %0, ptr %2, align 8
  %3 = load ptr, ptr %2, align 8
  %4 = getelementptr inbounds nuw %"class.__gnu_cxx::__normal_iterator", ptr %3, i32 0, i32 0
  %5 = load ptr, ptr %4, align 8
  ret ptr %5
}

; Function Attrs: mustprogress nounwind uwtable
define linkonce_odr noundef zeroext i1 @_ZN9__gnu_cxxneIPN4llvm5SUnitESt6vectorIS2_SaIS2_EEEEbRKNS_17__normal_iteratorIT_T0_EESC_(ptr noundef nonnull align 8 dereferenceable(8) %0, ptr noundef nonnull align 8 dereferenceable(8) %1) #1 comdat {
  %3 = alloca ptr, align 8
  %4 = alloca ptr, align 8
  store ptr %0, ptr %3, align 8
  store ptr %1, ptr %4, align 8
  %5 = load ptr, ptr %3, align 8
  %6 = call noundef nonnull align 8 dereferenceable(8) ptr @_ZNK9__gnu_cxx17__normal_iteratorIPN4llvm5SUnitESt6vectorIS2_SaIS2_EEE4baseEv(ptr noundef nonnull align 8 dereferenceable(8) %5) #2
  %7 = load ptr, ptr %6, align 8
  %8 = load ptr, ptr %4, align 8
  %9 = call noundef nonnull align 8 dereferenceable(8) ptr @_ZNK9__gnu_cxx17__normal_iteratorIPN4llvm5SUnitESt6vectorIS2_SaIS2_EEE4baseEv(ptr noundef nonnull align 8 dereferenceable(8) %8) #2
  %10 = load ptr, ptr %9, align 8
  %11 = icmp ne ptr %7, %10
  ret i1 %11
}

; Function Attrs: mustprogress nounwind uwtable
define linkonce_odr hidden ptr @_ZNSt6vectorIN4llvm5SUnitESaIS1_EE3endEv(ptr noundef nonnull align 8 dereferenceable(24) %0) #1 comdat align 2 {
  %2 = alloca %"class.__gnu_cxx::__normal_iterator", align 8
  %3 = alloca ptr, align 8
  store ptr %0, ptr %3, align 8
  %4 = load ptr, ptr %3, align 8
  %5 = getelementptr inbounds nuw %"struct.std::_Vector_base", ptr %4, i32 0, i32 0
  %6 = getelementptr inbounds nuw %"struct.std::_Vector_base<llvm::SUnit, std::allocator<llvm::SUnit>>::_Vector_impl_data", ptr %5, i32 0, i32 1
  call void @_ZN9__gnu_cxx17__normal_iteratorIPN4llvm5SUnitESt6vectorIS2_SaIS2_EEEC2ERKS3_(ptr noundef nonnull align 8 dereferenceable(8) %2, ptr noundef nonnull align 8 dereferenceable(8) %6) #2
  %7 = getelementptr inbounds nuw %"class.__gnu_cxx::__normal_iterator", ptr %2, i32 0, i32 0
  %8 = load ptr, ptr %7, align 8
  ret ptr %8
}

; Function Attrs: mustprogress nounwind uwtable
define linkonce_odr hidden ptr @_ZNSt6vectorIN4llvm5SUnitESaIS1_EE5beginEv(ptr noundef nonnull align 8 dereferenceable(24) %0) #1 comdat align 2 {
  %2 = alloca %"class.__gnu_cxx::__normal_iterator", align 8
  %3 = alloca ptr, align 8
  store ptr %0, ptr %3, align 8
  %4 = load ptr, ptr %3, align 8
  %5 = getelementptr inbounds nuw %"struct.std::_Vector_base", ptr %4, i32 0, i32 0
  %6 = getelementptr inbounds nuw %"struct.std::_Vector_base<llvm::SUnit, std::allocator<llvm::SUnit>>::_Vector_impl_data", ptr %5, i32 0, i32 0
  call void @_ZN9__gnu_cxx17__normal_iteratorIPN4llvm5SUnitESt6vectorIS2_SaIS2_EEEC2ERKS3_(ptr noundef nonnull align 8 dereferenceable(8) %2, ptr noundef nonnull align 8 dereferenceable(8) %6) #2
  %7 = getelementptr inbounds nuw %"class.__gnu_cxx::__normal_iterator", ptr %2, i32 0, i32 0
  %8 = load ptr, ptr %7, align 8
  ret ptr %8
}

; Function Attrs: mustprogress nounwind uwtable
define internal void @_ZN12_GLOBAL__N_111MacroFusion5applyEPN4llvm17ScheduleDAGInstrsE(ptr noundef nonnull align 8 dereferenceable(33) %0, ptr noundef %1) unnamed_addr #1 align 2 {
  %3 = alloca ptr, align 8
  %4 = alloca ptr, align 8
  %5 = alloca ptr, align 8
  %6 = alloca %"class.__gnu_cxx::__normal_iterator", align 8
  %7 = alloca %"class.__gnu_cxx::__normal_iterator", align 8
  %8 = alloca ptr, align 8
  store ptr %0, ptr %3, align 8
  store ptr %1, ptr %4, align 8
  %9 = load ptr, ptr %3, align 8
  %10 = getelementptr inbounds nuw %"class.(anonymous namespace)::MacroFusion", ptr %9, i32 0, i32 2
  %11 = load i8, ptr %10, align 8
  %12 = trunc i8 %11 to i1
  br i1 %12, label %13, label %32

13:                                               ; preds = %2
  %14 = load ptr, ptr %4, align 8
  %15 = getelementptr inbounds nuw %"class.llvm::ScheduleDAG", ptr %14, i32 0, i32 6
  store ptr %15, ptr %5, align 8
  %16 = load ptr, ptr %5, align 8
  %17 = call ptr @_ZNSt6vectorIN4llvm5SUnitESaIS1_EE5beginEv(ptr noundef nonnull align 8 dereferenceable(24) %16) #2
  %18 = getelementptr inbounds nuw %"class.__gnu_cxx::__normal_iterator", ptr %6, i32 0, i32 0
  store ptr %17, ptr %18, align 8
  %19 = load ptr, ptr %5, align 8
  %20 = call ptr @_ZNSt6vectorIN4llvm5SUnitESaIS1_EE3endEv(ptr noundef nonnull align 8 dereferenceable(24) %19) #2
  %21 = getelementptr inbounds nuw %"class.__gnu_cxx::__normal_iterator", ptr %7, i32 0, i32 0
  store ptr %20, ptr %21, align 8
  br label %22

22:                                               ; preds = %29, %13
  %23 = call noundef zeroext i1 @_ZN9__gnu_cxxneIPN4llvm5SUnitESt6vectorIS2_SaIS2_EEEEbRKNS_17__normal_iteratorIT_T0_EESC_(ptr noundef nonnull align 8 dereferenceable(8) %6, ptr noundef nonnull align 8 dereferenceable(8) %7) #2
  br i1 %23, label %24, label %31

24:                                               ; preds = %22
  %25 = call noundef nonnull align 8 dereferenceable(255) ptr @_ZNK9__gnu_cxx17__normal_iteratorIPN4llvm5SUnitESt6vectorIS2_SaIS2_EEEdeEv(ptr noundef nonnull align 8 dereferenceable(8) %6) #2
  store ptr %25, ptr %8, align 8
  %26 = load ptr, ptr %4, align 8
  %27 = load ptr, ptr %8, align 8
  %28 = call noundef zeroext i1 @_ZN12_GLOBAL__N_111MacroFusion20scheduleAdjacentImplERN4llvm17ScheduleDAGInstrsERNS1_5SUnitE(ptr noundef nonnull align 8 dereferenceable(33) %9, ptr noundef nonnull align 8 dereferenceable(2624) %26, ptr noundef nonnull align 8 dereferenceable(255) %27)
  br label %29

29:                                               ; preds = %24
  %30 = call noundef nonnull align 8 dereferenceable(8) ptr @_ZN9__gnu_cxx17__normal_iteratorIPN4llvm5SUnitESt6vectorIS2_SaIS2_EEEppEv(ptr noundef nonnull align 8 dereferenceable(8) %6) #2
  br label %22

31:                                               ; preds = %22
  br label %32

32:                                               ; preds = %31, %2
  %33 = load ptr, ptr %4, align 8
  %34 = getelementptr inbounds nuw %"class.llvm::ScheduleDAG", ptr %33, i32 0, i32 8
  %35 = call noundef ptr @_ZNK4llvm5SUnit8getInstrEv(ptr noundef nonnull align 8 dereferenceable(255) %34)
  %36 = icmp ne ptr %35, null
  br i1 %36, label %37, label %42

37:                                               ; preds = %32
  %38 = load ptr, ptr %4, align 8
  %39 = load ptr, ptr %4, align 8
  %40 = getelementptr inbounds nuw %"class.llvm::ScheduleDAG", ptr %39, i32 0, i32 8
  %41 = call noundef zeroext i1 @_ZN12_GLOBAL__N_111MacroFusion20scheduleAdjacentImplERN4llvm17ScheduleDAGInstrsERNS1_5SUnitE(ptr noundef nonnull align 8 dereferenceable(33) %9, ptr noundef nonnull align 8 dereferenceable(2624) %38, ptr noundef nonnull align 8 dereferenceable(255) %40)
  br label %42

42:                                               ; preds = %37, %32
  ret void
}