; Function Attrs: mustprogress nounwind uwtable
define internal void @_ZN12_GLOBAL__N_111MacroFusion5applyEPN4llvm17ScheduleDAGInstrsE(ptr noundef nonnull readonly align 8 captures(none) dereferenceable(33) %0, ptr noundef %1) unnamed_addr #0 align 2 {
  %3 = getelementptr inbounds nuw i8, ptr %0, i64 32
  %4 = load i8, ptr %3, align 8
  %5 = trunc i8 %4 to i1
  br i1 %5, label %6, label %.loopexit

6:                                                ; preds = %2
  %7 = getelementptr inbounds nuw i8, ptr %1, i64 48
  %8 = load ptr, ptr %7, align 8
  %9 = getelementptr inbounds nuw i8, ptr %1, i64 56
  %10 = load ptr, ptr %9, align 8
  %.not1213 = icmp eq ptr %8, %10
  br i1 %.not1213, label %.loopexit, label %.lr.ph

.lr.ph:                                           ; preds = %6, %.lr.ph
  %.sroa.09.014 = phi ptr [ %11, %.lr.ph ], [ %8, %6 ]
  tail call fastcc void @_ZN12_GLOBAL__N_111MacroFusion20scheduleAdjacentImplERN4llvm17ScheduleDAGInstrsERNS1_5SUnitE(ptr noundef nonnull align 8 dereferenceable(33) %0, ptr noundef nonnull align 8 dereferenceable(2624) %1, ptr noundef nonnull align 8 dereferenceable(255) %.sroa.09.014)
  %11 = getelementptr inbounds nuw i8, ptr %.sroa.09.014, i64 256
  %.not12 = icmp eq ptr %11, %10
  br i1 %.not12, label %.loopexit, label %.lr.ph

.loopexit:                                        ; preds = %.lr.ph, %6, %2
  %12 = getelementptr inbounds nuw i8, ptr %1, i64 328
  %13 = load ptr, ptr %12, align 8
  %.not = icmp eq ptr %13, null
  br i1 %.not, label %15, label %14

14:                                               ; preds = %.loopexit
  tail call fastcc void @_ZN12_GLOBAL__N_111MacroFusion20scheduleAdjacentImplERN4llvm17ScheduleDAGInstrsERNS1_5SUnitE(ptr noundef nonnull align 8 dereferenceable(33) %0, ptr noundef nonnull align 8 dereferenceable(2624) %1, ptr noundef nonnull align 8 dereferenceable(255) %12)
  br label %15

15:                                               ; preds = %14, %.loopexit
  ret void
}